target datalayout = "e-m:e-p270:32:32-p271:32:32-p272:64:64-i64:64-i128:128-f80:128-n8:16:32:64-S128"
target triple = "x86_64-pc-linux-gnu"

%"class.OpenImageIO::v3_1_0::bmp_pvt::DibInformationHeader" = type { i32, i32, i32, i16, i16, i32, i32, i32, i32, i32, i32, i32, i32, i32, i32, i32, i32, i32, i32, i32, i32, i32, i32, i32, i32, i32, i32, i32, i32, i32, i32, i32 }

; Function Attrs: inlinehint mustprogress nounwind uwtable
define linkonce_odr hidden noundef signext i16 @_ZN11OpenImageIO6v3_1_08byteswapIsEET_S2_(i16 noundef signext %0) #8 comdat {
  %2 = alloca i16, align 2
  store i16 %0, ptr %2, align 2, !tbaa !23
  %3 = load i16, ptr %2, align 2, !tbaa !23
  %4 = call i16 @llvm.bswap.i16(i16 %3)
  ret i16 %4
}

; Function Attrs: inlinehint mustprogress nounwind uwtable
define linkonce_odr hidden noundef i32 @_ZN11OpenImageIO6v3_1_08byteswapIiEET_S2_(i32 noundef %0) #8 comdat {
  %2 = alloca i32, align 4
  store i32 %0, ptr %2, align 4, !tbaa !22
  %3 = load i32, ptr %2, align 4, !tbaa !22
  %4 = call i32 @llvm.bswap.i32(i32 %3)
  ret i32 %4
}

; Function Attrs: inlinehint mustprogress uwtable
define linkonce_odr hidden void @_ZN11OpenImageIO6v3_1_011swap_endianIsEEvPT_i(ptr noundef %0, i32 noundef %1) #6 comdat {
  %3 = alloca ptr, align 8
  %4 = alloca i32, align 4
  %5 = alloca i32, align 4
  store ptr %0, ptr %3, align 8, !tbaa !10
  store i32 %1, ptr %4, align 4, !tbaa !22
  call void @llvm.lifetime.start.p0(i64 4, ptr %5) #3
  store i32 0, ptr %5, align 4, !tbaa !22
  br label %6

6:                                                ; preds = %22, %2
  %7 = load i32, ptr %5, align 4, !tbaa !22
  %8 = load i32, ptr %4, align 4, !tbaa !22
  %9 = icmp slt i32 %7, %8
  br i1 %9, label %11, label %10

10:                                               ; preds = %6
  call void @llvm.lifetime.end.p0(i64 4, ptr %5) #3
  br label %25

11:                                               ; preds = %6
  %12 = load ptr, ptr %3, align 8, !tbaa !10
  %13 = load i32, ptr %5, align 4, !tbaa !22
  %14 = sext i32 %13 to i64
  %15 = getelementptr inbounds i16, ptr %12, i64 %14
  %16 = load i16, ptr %15, align 2, !tbaa !23
  %17 = call noundef signext i16 @_ZN11OpenImageIO6v3_1_08byteswapIsEET_S2_(i16 noundef signext %16)
  %18 = load ptr, ptr %3, align 8, !tbaa !10
  %19 = load i32, ptr %5, align 4, !tbaa !22
  %20 = sext i32 %19 to i64
  %21 = getelementptr inbounds i16, ptr %18, i64 %20
  store i16 %17, ptr %21, align 2, !tbaa !23
  br label %22

22:                                               ; preds = %11
  %23 = load i32, ptr %5, align 4, !tbaa !22
  %24 = add nsw i32 %23, 1
  store i32 %24, ptr %5, align 4, !tbaa !22
  br label %6, !llvm.loop !24

25:                                               ; preds = %10
  ret void
}

; Function Attrs: inlinehint mustprogress uwtable
define linkonce_odr hidden void @_ZN11OpenImageIO6v3_1_011swap_endianIiEEvPT_i(ptr noundef %0, i32 noundef %1) #6 comdat {
  %3 = alloca ptr, align 8
  %4 = alloca i32, align 4
  %5 = alloca i32, align 4
  store ptr %0, ptr %3, align 8, !tbaa !16
  store i32 %1, ptr %4, align 4, !tbaa !22
  call void @llvm.lifetime.start.p0(i64 4, ptr %5) #3
  store i32 0, ptr %5, align 4, !tbaa !22
  br label %6

6:                                                ; preds = %22, %2
  %7 = load i32, ptr %5, align 4, !tbaa !22
  %8 = load i32, ptr %4, align 4, !tbaa !22
  %9 = icmp slt i32 %7, %8
  br i1 %9, label %11, label %10

10:                                               ; preds = %6
  call void @llvm.lifetime.end.p0(i64 4, ptr %5) #3
  br label %25

11:                                               ; preds = %6
  %12 = load ptr, ptr %3, align 8, !tbaa !16
  %13 = load i32, ptr %5, align 4, !tbaa !22
  %14 = sext i32 %13 to i64
  %15 = getelementptr inbounds i32, ptr %12, i64 %14
  %16 = load i32, ptr %15, align 4, !tbaa !22
  %17 = call noundef i32 @_ZN11OpenImageIO6v3_1_08byteswapIiEET_S2_(i32 noundef %16)
  %18 = load ptr, ptr %3, align 8, !tbaa !16
  %19 = load i32, ptr %5, align 4, !tbaa !22
  %20 = sext i32 %19 to i64
  %21 = getelementptr inbounds i32, ptr %18, i64 %20
  store i32 %17, ptr %21, align 4, !tbaa !22
  br label %22

22:                                               ; preds = %11
  %23 = load i32, ptr %5, align 4, !tbaa !22
  %24 = add nsw i32 %23, 1
  store i32 %24, ptr %5, align 4, !tbaa !22
  br label %6, !llvm.loop !26

25:                                               ; preds = %10
  ret void
}

; Function Attrs: mustprogress uwtable
define hidden void @_ZN11OpenImageIO6v3_1_07bmp_pvt20DibInformationHeader11swap_endianEv(ptr noundef nonnull align 4 dereferenceable(124) %0) #4 align 2 {
  %2 = alloca ptr, align 8
  store ptr %0, ptr %2, align 8, !tbaa !27
  %3 = load ptr, ptr %2, align 8
  %4 = getelementptr inbounds nuw %"class.OpenImageIO::v3_1_0::bmp_pvt::DibInformationHeader", ptr %3, i32 0, i32 0
  call void @_ZN11OpenImageIO6v3_1_011swap_endianIiEEvPT_i(ptr noundef %4, i32 noundef 1)
  %5 = getelementptr inbounds nuw %"class.OpenImageIO::v3_1_0::bmp_pvt::DibInformationHeader", ptr %3, i32 0, i32 1
  call void @_ZN11OpenImageIO6v3_1_011swap_endianIiEEvPT_i(ptr noundef %5, i32 noundef 1)
  %6 = getelementptr inbounds nuw %"class.OpenImageIO::v3_1_0::bmp_pvt::DibInformationHeader", ptr %3, i32 0, i32 2
  call void @_ZN11OpenImageIO6v3_1_011swap_endianIiEEvPT_i(ptr noundef %6, i32 noundef 1)
  %7 = getelementptr inbounds nuw %"class.OpenImageIO::v3_1_0::bmp_pvt::DibInformationHeader", ptr %3, i32 0, i32 3
  call void @_ZN11OpenImageIO6v3_1_011swap_endianIsEEvPT_i(ptr noundef %7, i32 noundef 1)
  %8 = getelementptr inbounds nuw %"class.OpenImageIO::v3_1_0::bmp_pvt::DibInformationHeader", ptr %3, i32 0, i32 4
  call void @_ZN11OpenImageIO6v3_1_011swap_endianIsEEvPT_i(ptr noundef %8, i32 noundef 1)
  %9 = getelementptr inbounds nuw %"class.OpenImageIO::v3_1_0::bmp_pvt::DibInformationHeader", ptr %3, i32 0, i32 5
  call void @_ZN11OpenImageIO6v3_1_011swap_endianIiEEvPT_i(ptr noundef %9, i32 noundef 1)
  %10 = getelementptr inbounds nuw %"class.OpenImageIO::v3_1_0::bmp_pvt::DibInformationHeader", ptr %3, i32 0, i32 6
  call void @_ZN11OpenImageIO6v3_1_011swap_endianIiEEvPT_i(ptr noundef %10, i32 noundef 1)
  %11 = getelementptr inbounds nuw %"class.OpenImageIO::v3_1_0::bmp_pvt::DibInformationHeader", ptr %3, i32 0, i32 7
  call void @_ZN11OpenImageIO6v3_1_011swap_endianIiEEvPT_i(ptr noundef %11, i32 noundef 1)
  %12 = getelementptr inbounds nuw %"class.OpenImageIO::v3_1_0::bmp_pvt::DibInformationHeader", ptr %3, i32 0, i32 8
  call void @_ZN11OpenImageIO6v3_1_011swap_endianIiEEvPT_i(ptr noundef %12, i32 noundef 1)
  %13 = getelementptr inbounds nuw %"class.OpenImageIO::v3_1_0::bmp_pvt::DibInformationHeader", ptr %3, i32 0, i32 9
  call void @_ZN11OpenImageIO6v3_1_011swap_endianIiEEvPT_i(ptr noundef %13, i32 noundef 1)
  %14 = getelementptr inbounds nuw %"class.OpenImageIO::v3_1_0::bmp_pvt::DibInformationHeader", ptr %3, i32 0, i32 10
  call void @_ZN11OpenImageIO6v3_1_011swap_endianIiEEvPT_i(ptr noundef %14, i32 noundef 1)
  ret void
}