; Function Attrs: mustprogress nofree norecurse nosync nounwind willreturn memory(argmem: readwrite) uwtable
define hidden void @_ZN11OpenImageIO6v3_1_07bmp_pvt20DibInformationHeader11swap_endianEv(ptr noundef nonnull align 4 captures(none) dereferenceable(124) %0) local_unnamed_addr #5 align 2 {
.lr.ph.i:
  %1 = load i32, ptr %0, align 4, !tbaa !12
  %2 = tail call noundef i32 @llvm.bswap.i32(i32 %1)
  store i32 %2, ptr %0, align 4, !tbaa !12
  %3 = getelementptr inbounds nuw i8, ptr %0, i64 4
  %4 = load i32, ptr %3, align 4, !tbaa !12
  %5 = tail call noundef i32 @llvm.bswap.i32(i32 %4)
  store i32 %5, ptr %3, align 4, !tbaa !12
  %6 = getelementptr inbounds nuw i8, ptr %0, i64 8
  %7 = load i32, ptr %6, align 4, !tbaa !12
  %8 = tail call noundef i32 @llvm.bswap.i32(i32 %7)
  store i32 %8, ptr %6, align 4, !tbaa !12
  %9 = getelementptr inbounds nuw i8, ptr %0, i64 12
  %10 = load i16, ptr %9, align 4, !tbaa !11
  %11 = tail call noundef i16 @llvm.bswap.i16(i16 %10)
  store i16 %11, ptr %9, align 4, !tbaa !11
  %12 = getelementptr inbounds nuw i8, ptr %0, i64 14
  %13 = load i16, ptr %12, align 2, !tbaa !11
  %14 = tail call noundef i16 @llvm.bswap.i16(i16 %13)
  store i16 %14, ptr %12, align 2, !tbaa !11
  %15 = getelementptr inbounds nuw i8, ptr %0, i64 16
  %16 = load i32, ptr %15, align 4, !tbaa !12
  %17 = tail call noundef i32 @llvm.bswap.i32(i32 %16)
  store i32 %17, ptr %15, align 4, !tbaa !12
  %18 = getelementptr inbounds nuw i8, ptr %0, i64 20
  %19 = load i32, ptr %18, align 4, !tbaa !12
  %20 = tail call noundef i32 @llvm.bswap.i32(i32 %19)
  store i32 %20, ptr %18, align 4, !tbaa !12
  %21 = getelementptr inbounds nuw i8, ptr %0, i64 24
  %22 = load i32, ptr %21, align 4, !tbaa !12
  %23 = tail call noundef i32 @llvm.bswap.i32(i32 %22)
  store i32 %23, ptr %21, align 4, !tbaa !12
  %24 = getelementptr inbounds nuw i8, ptr %0, i64 28
  %25 = load i32, ptr %24, align 4, !tbaa !12
  %26 = tail call noundef i32 @llvm.bswap.i32(i32 %25)
  store i32 %26, ptr %24, align 4, !tbaa !12
  %27 = getelementptr inbounds nuw i8, ptr %0, i64 32
  %28 = load i32, ptr %27, align 4, !tbaa !12
  %29 = tail call noundef i32 @llvm.bswap.i32(i32 %28)
  store i32 %29, ptr %27, align 4, !tbaa !12
  %30 = getelementptr inbounds nuw i8, ptr %0, i64 36
  %31 = load i32, ptr %30, align 4, !tbaa !12
  %32 = tail call noundef i32 @llvm.bswap.i32(i32 %31)
  store i32 %32, ptr %30, align 4, !tbaa !12
  ret void
}